; Function Attrs: mustprogress nounwind uwtable
define void @_ZN3net15QuicStreamFrameD2Ev(ptr noundef nonnull align 8 captures(none) dereferenceable(40) %0) unnamed_addr #5 align 2 personality ptr @__gxx_personality_v0 {
  %2 = getelementptr inbounds nuw i8, ptr %0, i64 32
  %3 = load ptr, ptr %2, align 8, !tbaa !60
  %.not.i = icmp eq ptr %3, null
  br i1 %.not.i, label %_ZNSt10unique_ptrIA_cN3net19StreamBufferDeleterEED2Ev.exit, label %4

4:                                                ; preds = %1
  %5 = getelementptr inbounds nuw i8, ptr %0, i64 24
  %6 = load ptr, ptr %5, align 8, !tbaa !36
  %.not4.i = icmp eq ptr %6, null
  br i1 %.not4.i, label %_ZNSt10unique_ptrIA_cN3net19StreamBufferDeleterEED2Ev.exit, label %7

7:                                                ; preds = %4
  %8 = load ptr, ptr %6, align 8, !tbaa !39
  %9 = getelementptr inbounds nuw i8, ptr %8, i64 32
  %10 = load ptr, ptr %9, align 8
  invoke void %10(ptr noundef nonnull align 8 dereferenceable(8) %6, ptr noundef nonnull %3)
          to label %_ZNSt10unique_ptrIA_cN3net19StreamBufferDeleterEED2Ev.exit unwind label %11

11:                                               ; preds = %7
  %12 = landingpad { ptr, i32 }
          catch ptr null
  %13 = extractvalue { ptr, i32 } %12, 0
  tail call void @__clang_call_terminate(ptr %13) #31
  unreachable

_ZNSt10unique_ptrIA_cN3net19StreamBufferDeleterEED2Ev.exit: ; preds = %1, %4, %7
  store ptr null, ptr %2, align 8, !tbaa !60
  ret void
}